target datalayout = "e-m:e-p270:32:32-p271:32:32-p272:64:64-i64:64-i128:128-f80:128-n8:16:32:64-S128"
target triple = "x86_64-pc-linux-gnu"

%struct.sp_int = type { i16, i16, [129 x i64] }
%struct.sp_int_minimal = type { i16, i16, [1 x i64] }

; Function Attrs: nounwind uwtable
define internal void @_sp_zero(ptr noundef %0) #0 {
  %2 = alloca ptr, align 8
  %3 = alloca ptr, align 8
  store ptr %0, ptr %2, align 8, !tbaa !3
  call void @llvm.lifetime.start.p0(i64 8, ptr %3) #8
  %4 = load ptr, ptr %2, align 8, !tbaa !3
  store ptr %4, ptr %3, align 8, !tbaa !10
  %5 = load ptr, ptr %3, align 8, !tbaa !10
  %6 = getelementptr inbounds nuw %struct.sp_int_minimal, ptr %5, i32 0, i32 0
  store i16 0, ptr %6, align 8, !tbaa !20
  %7 = load ptr, ptr %3, align 8, !tbaa !10
  %8 = getelementptr inbounds nuw %struct.sp_int_minimal, ptr %7, i32 0, i32 2
  %9 = getelementptr inbounds [1 x i64], ptr %8, i64 0, i64 0
  store i64 0, ptr %9, align 8, !tbaa !16
  call void @llvm.lifetime.end.p0(i64 8, ptr %3) #8
  ret void
}

; Function Attrs: nounwind uwtable
define internal void @_sp_init_size(ptr noundef %0, i32 noundef %1) #0 {
  %3 = alloca ptr, align 8
  %4 = alloca i32, align 4
  %5 = alloca ptr, align 8
  store ptr %0, ptr %3, align 8, !tbaa !3
  store i32 %1, ptr %4, align 4, !tbaa !8
  call void @llvm.lifetime.start.p0(i64 8, ptr %5) #8
  %6 = load ptr, ptr %3, align 8, !tbaa !3
  store ptr %6, ptr %5, align 8, !tbaa !10
  %7 = load ptr, ptr %5, align 8, !tbaa !10
  call void @_sp_zero(ptr noundef %7)
  %8 = load i32, ptr %4, align 4, !tbaa !8
  %9 = trunc i32 %8 to i16
  %10 = load ptr, ptr %3, align 8, !tbaa !3
  %11 = getelementptr inbounds nuw %struct.sp_int, ptr %10, i32 0, i32 1
  store i16 %9, ptr %11, align 2, !tbaa !12
  call void @llvm.lifetime.end.p0(i64 8, ptr %5) #8
  ret void
}

; Function Attrs: nounwind uwtable
define i32 @sp_mod(ptr noundef %0, ptr noundef %1, ptr noundef %2) #0 {
  %4 = alloca ptr, align 8
  %5 = alloca ptr, align 8
  %6 = alloca ptr, align 8
  %7 = alloca i32, align 4
  store ptr %0, ptr %4, align 8, !tbaa !3
  store ptr %1, ptr %5, align 8, !tbaa !3
  store ptr %2, ptr %6, align 8, !tbaa !3
  call void @llvm.lifetime.start.p0(i64 4, ptr %7) #8
  store i32 0, ptr %7, align 4, !tbaa !8
  %8 = load ptr, ptr %4, align 8, !tbaa !3
  %9 = icmp eq ptr %8, null
  br i1 %9, label %16, label %10

10:                                               ; preds = %3
  %11 = load ptr, ptr %5, align 8, !tbaa !3
  %12 = icmp eq ptr %11, null
  br i1 %12, label %16, label %13

13:                                               ; preds = %10
  %14 = load ptr, ptr %6, align 8, !tbaa !3
  %15 = icmp eq ptr %14, null
  br i1 %15, label %16, label %17

16:                                               ; preds = %13, %10, %3
  store i32 -98, ptr %7, align 4, !tbaa !8
  br label %25

17:                                               ; preds = %13
  %18 = load ptr, ptr %4, align 8, !tbaa !3
  %19 = getelementptr inbounds nuw %struct.sp_int, ptr %18, i32 0, i32 0
  %20 = load i16, ptr %19, align 8, !tbaa !15
  %21 = zext i16 %20 to i32
  %22 = icmp sge i32 %21, 129
  br i1 %22, label %23, label %24

23:                                               ; preds = %17
  store i32 -98, ptr %7, align 4, !tbaa !8
  br label %24

24:                                               ; preds = %23, %17
  br label %25

25:                                               ; preds = %24, %16
  %26 = load i32, ptr %7, align 4, !tbaa !8
  %27 = icmp eq i32 %26, 0
  br i1 %27, label %28, label %33

28:                                               ; preds = %25
  %29 = load ptr, ptr %4, align 8, !tbaa !3
  %30 = load ptr, ptr %5, align 8, !tbaa !3
  %31 = load ptr, ptr %6, align 8, !tbaa !3
  %32 = call i32 @sp_div(ptr noundef %29, ptr noundef %30, ptr noundef null, ptr noundef %31)
  store i32 %32, ptr %7, align 4, !tbaa !8
  br label %33

33:                                               ; preds = %28, %25
  %34 = load i32, ptr %7, align 4, !tbaa !8
  call void @llvm.lifetime.end.p0(i64 4, ptr %7) #8
  ret i32 %34
}

; Function Attrs: nounwind uwtable
define i32 @sp_init_size(ptr noundef %0, i32 noundef %1) #0 {
  %3 = alloca ptr, align 8
  %4 = alloca i32, align 4
  %5 = alloca i32, align 4
  store ptr %0, ptr %3, align 8, !tbaa !3
  store i32 %1, ptr %4, align 4, !tbaa !8
  call void @llvm.lifetime.start.p0(i64 4, ptr %5) #8
  store i32 0, ptr %5, align 4, !tbaa !8
  %6 = load ptr, ptr %3, align 8, !tbaa !3
  %7 = icmp eq ptr %6, null
  br i1 %7, label %14, label %8

8:                                                ; preds = %2
  %9 = load i32, ptr %4, align 4, !tbaa !8
  %10 = icmp eq i32 %9, 0
  br i1 %10, label %14, label %11

11:                                               ; preds = %8
  %12 = load i32, ptr %4, align 4, !tbaa !8
  %13 = icmp ugt i32 %12, 129
  br i1 %13, label %14, label %15

14:                                               ; preds = %11, %8, %2
  store i32 -98, ptr %5, align 4, !tbaa !8
  br label %15

15:                                               ; preds = %14, %11
  %16 = load i32, ptr %5, align 4, !tbaa !8
  %17 = icmp eq i32 %16, 0
  br i1 %17, label %18, label %21

18:                                               ; preds = %15
  %19 = load ptr, ptr %3, align 8, !tbaa !3
  %20 = load i32, ptr %4, align 4, !tbaa !8
  call void @_sp_init_size(ptr noundef %19, i32 noundef %20)
  br label %21

21:                                               ; preds = %18, %15
  %22 = load i32, ptr %5, align 4, !tbaa !8
  call void @llvm.lifetime.end.p0(i64 4, ptr %5) #8
  ret i32 %22
}

; Function Attrs: nounwind uwtable
define internal i32 @_sp_sqrmod(ptr noundef %0, ptr noundef %1, ptr noundef %2) #0 {
  %4 = alloca ptr, align 8
  %5 = alloca ptr, align 8
  %6 = alloca ptr, align 8
  %7 = alloca i32, align 4
  %8 = alloca ptr, align 8
  %9 = alloca i64, align 8
  %10 = alloca ptr, align 8
  store ptr %0, ptr %4, align 8, !tbaa !3
  store ptr %1, ptr %5, align 8, !tbaa !3
  store ptr %2, ptr %6, align 8, !tbaa !3
  call void @llvm.lifetime.start.p0(i64 4, ptr %7) #8
  store i32 0, ptr %7, align 4, !tbaa !8
  %11 = load ptr, ptr %4, align 8, !tbaa !3
  %12 = getelementptr inbounds nuw %struct.sp_int, ptr %11, i32 0, i32 0
  %13 = load i16, ptr %12, align 8, !tbaa !15
  %14 = zext i16 %13 to i32
  %15 = mul nsw i32 %14, 2
  %16 = icmp sle i32 %15, 1
  br i1 %16, label %17, label %18

17:                                               ; preds = %3
  br label %26

18:                                               ; preds = %3
  %19 = load ptr, ptr %4, align 8, !tbaa !3
  %20 = getelementptr inbounds nuw %struct.sp_int, ptr %19, i32 0, i32 0
  %21 = load i16, ptr %20, align 8, !tbaa !15
  %22 = zext i16 %21 to i32
  %23 = mul nsw i32 %22, 2
  %24 = sub nsw i32 %23, 1
  %25 = sext i32 %24 to i64
  br label %26

26:                                               ; preds = %18, %17
  %27 = phi i64 [ 0, %17 ], [ %25, %18 ]
  %28 = mul i64 %27, 8
  %29 = add i64 16, %28
  %30 = call ptr @llvm.stacksave.p0()
  store ptr %30, ptr %8, align 8
  %31 = alloca i8, i64 %29, align 16
  store i64 %29, ptr %9, align 8
  call void @llvm.lifetime.start.p0(i64 8, ptr %10) #8
  store ptr %31, ptr %10, align 8, !tbaa !3
  br label %32

32:                                               ; preds = %26
  %33 = load i32, ptr %7, align 4, !tbaa !8
  %34 = icmp eq i32 %33, 0
  br i1 %34, label %35, label %43

35:                                               ; preds = %32
  %36 = load ptr, ptr %4, align 8, !tbaa !3
  %37 = getelementptr inbounds nuw %struct.sp_int, ptr %36, i32 0, i32 0
  %38 = load i16, ptr %37, align 8, !tbaa !15
  %39 = zext i16 %38 to i32
  %40 = mul nsw i32 %39, 2
  %41 = icmp sgt i32 %40, 129
  br i1 %41, label %42, label %43

42:                                               ; preds = %35
  store i32 -98, ptr %7, align 4, !tbaa !8
  br label %43

43:                                               ; preds = %42, %35, %32
  br label %44

44:                                               ; preds = %43
  br label %45

45:                                               ; preds = %44
  %46 = load i32, ptr %7, align 4, !tbaa !8
  %47 = icmp eq i32 %46, 0
  br i1 %47, label %48, label %56

48:                                               ; preds = %45
  %49 = load ptr, ptr %10, align 8, !tbaa !3
  %50 = load ptr, ptr %4, align 8, !tbaa !3
  %51 = getelementptr inbounds nuw %struct.sp_int, ptr %50, i32 0, i32 0
  %52 = load i16, ptr %51, align 8, !tbaa !15
  %53 = zext i16 %52 to i32
  %54 = mul i32 %53, 2
  %55 = call i32 @sp_init_size(ptr noundef %49, i32 noundef %54)
  store i32 %55, ptr %7, align 4, !tbaa !8
  br label %56

56:                                               ; preds = %48, %45
  %57 = load i32, ptr %7, align 4, !tbaa !8
  %58 = icmp eq i32 %57, 0
  br i1 %58, label %59, label %63

59:                                               ; preds = %56
  %60 = load ptr, ptr %4, align 8, !tbaa !3
  %61 = load ptr, ptr %10, align 8, !tbaa !3
  %62 = call i32 @sp_sqr(ptr noundef %60, ptr noundef %61)
  store i32 %62, ptr %7, align 4, !tbaa !8
  br label %63

63:                                               ; preds = %59, %56
  %64 = load i32, ptr %7, align 4, !tbaa !8
  %65 = icmp eq i32 %64, 0
  br i1 %65, label %66, label %71

66:                                               ; preds = %63
  %67 = load ptr, ptr %10, align 8, !tbaa !3
  %68 = load ptr, ptr %5, align 8, !tbaa !3
  %69 = load ptr, ptr %6, align 8, !tbaa !3
  %70 = call i32 @sp_mod(ptr noundef %67, ptr noundef %68, ptr noundef %69)
  store i32 %70, ptr %7, align 4, !tbaa !8
  br label %71

71:                                               ; preds = %66, %63
  br label %72

72:                                               ; preds = %71
  br label %73

73:                                               ; preds = %72
  br label %74

74:                                               ; preds = %73
  %75 = load i32, ptr %7, align 4, !tbaa !8
  call void @llvm.lifetime.end.p0(i64 8, ptr %10) #8
  %76 = load ptr, ptr %8, align 8
  call void @llvm.stackrestore.p0(ptr %76)
  call void @llvm.lifetime.end.p0(i64 4, ptr %7) #8
  ret i32 %75
}