; Function Attrs: nofree norecurse nosync nounwind memory(readwrite, inaccessiblemem: none) uwtable
define internal fastcc range(i32 -98, 1) i32 @_sp_sqrmod(ptr noundef captures(address_is_null) %0, ptr noundef captures(address_is_null) %1, ptr noundef captures(address) %2) unnamed_addr #11 {
  %4 = load i16, ptr %0, align 8, !tbaa !12
  %5 = icmp eq i16 %4, 0
  %6 = zext i16 %4 to i64
  %7 = shl nuw nsw i64 %6, 4
  %8 = add nuw nsw i64 %7, 34359738360
  %9 = and i64 %8, 34359738360
  %10 = add nuw nsw i64 %9, 16
  %11 = select i1 %5, i64 16, i64 %10
  %12 = alloca i8, i64 %11, align 16
  %13 = icmp ult i16 %4, 65
  br i1 %13, label %14, label %sp_mod.exit

14:                                               ; preds = %3
  %15 = shl nuw nsw i16 %4, 1
  %16 = add nsw i16 %15, -1
  %17 = icmp ult i16 %16, 129
  br i1 %17, label %sp_init_size.exit, label %sp_mod.exit

sp_init_size.exit:                                ; preds = %14
  store i16 0, ptr %12, align 16, !tbaa !3
  %18 = getelementptr inbounds nuw i8, ptr %12, i64 8
  store i64 0, ptr %18, align 8, !tbaa !8
  %19 = getelementptr inbounds nuw i8, ptr %12, i64 2
  store i16 %15, ptr %19, align 2, !tbaa !10
  %20 = call i32 @sp_sqr(ptr noundef nonnull %0, ptr noundef nonnull %12)
  %21 = icmp eq i32 %20, 0
  br i1 %21, label %22, label %sp_mod.exit

22:                                               ; preds = %sp_init_size.exit
  %23 = icmp eq ptr %1, null
  %24 = icmp eq ptr %2, null
  %or.cond3.i = or i1 %23, %24
  br i1 %or.cond3.i, label %sp_mod.exit, label %25

25:                                               ; preds = %22
  %26 = load i16, ptr %12, align 16, !tbaa !12
  %27 = icmp ult i16 %26, 129
  br i1 %27, label %28, label %sp_mod.exit

28:                                               ; preds = %25
  %29 = call i32 @sp_div(ptr noundef nonnull %12, ptr noundef nonnull %1, ptr noundef null, ptr noundef nonnull %2)
  br label %sp_mod.exit

sp_mod.exit:                                      ; preds = %3, %14, %28, %25, %22, %sp_init_size.exit
  %.3 = phi i32 [ %20, %sp_init_size.exit ], [ %29, %28 ], [ -98, %25 ], [ -98, %22 ], [ -98, %14 ], [ -98, %3 ]
  ret i32 %.3
}